; Function Attrs: mustprogress uwtable
define void @_ZNK7Imf_3_414TypedAttributeINS_9LineOrderEE12writeValueToERNS_7OStreamEi(ptr noundef nonnull readonly align 8 captures(none) dereferenceable(12) %0, ptr noundef nonnull align 8 dereferenceable(40) %1, i32 %2) unnamed_addr #3 align 2 {
  %4 = alloca i8, align 1
  %5 = getelementptr inbounds nuw i8, ptr %0, i64 8
  %6 = load i32, ptr %5, align 8, !tbaa !9
  %7 = trunc i32 %6 to i8
  call void @llvm.lifetime.start.p0(i64 1, ptr nonnull %4)
  store i8 %7, ptr %4, align 1, !tbaa !12
  %8 = load ptr, ptr %1, align 8, !tbaa !3
  %9 = getelementptr inbounds nuw i8, ptr %8, i64 16
  %10 = load ptr, ptr %9, align 8
  call void %10(ptr noundef nonnull align 8 dereferenceable(40) %1, ptr noundef nonnull %4, i32 noundef 1)
  call void @llvm.lifetime.end.p0(i64 1, ptr nonnull %4)
  ret void
}